target datalayout = "e-m:e-p270:32:32-p271:32:32-p272:64:64-i64:64-i128:128-f80:128-n8:16:32:64-S128"
target triple = "x86_64-unknown-linux-gnu"

%"class.node::inspector::protocol::span" = type { ptr, i64 }
%"class.node::inspector::protocol::cbor::CBORTokenizer" = type { %"class.node::inspector::protocol::span", i32, %"struct.node::inspector::protocol::Status", i64, i32, i64 }
%"struct.node::inspector::protocol::Status" = type { i32, i64 }

; Function Attrs: mustprogress nounwind uwtable
define dso_local noundef i32 @_ZNK4node9inspector8protocol4cbor13CBORTokenizer8GetInt32Ev(ptr noundef nonnull align 8 dereferenceable(64) %this) #0 align 2 {
entry:
  %this.addr = alloca ptr, align 8
  store ptr %this, ptr %this.addr, align 8
  %this1 = load ptr, ptr %this.addr, align 8
  %token_start_type_ = getelementptr inbounds %"class.node::inspector::protocol::cbor::CBORTokenizer", ptr %this1, i32 0, i32 4
  %0 = load i32, ptr %token_start_type_, align 8
  %cmp = icmp eq i32 %0, 0
  br i1 %cmp, label %cond.true, label %cond.false

cond.true:                                        ; preds = %entry
  %token_start_internal_value_ = getelementptr inbounds %"class.node::inspector::protocol::cbor::CBORTokenizer", ptr %this1, i32 0, i32 5
  %1 = load i64, ptr %token_start_internal_value_, align 8
  br label %cond.end

cond.false:                                       ; preds = %entry
  %token_start_internal_value_2 = getelementptr inbounds %"class.node::inspector::protocol::cbor::CBORTokenizer", ptr %this1, i32 0, i32 5
  %2 = load i64, ptr %token_start_internal_value_2, align 8
  %sub = sub nsw i64 0, %2
  %sub3 = sub nsw i64 %sub, 1
  br label %cond.end

cond.end:                                         ; preds = %cond.false, %cond.true
  %cond = phi i64 [ %1, %cond.true ], [ %sub3, %cond.false ]
  %conv = trunc i64 %cond to i32
  ret i32 %conv
}