; Function Attrs: mustprogress nofree norecurse nosync nounwind willreturn memory(argmem: read) uwtable
define dso_local noundef i32 @_ZNK4node9inspector8protocol4cbor13CBORTokenizer8GetInt32Ev(ptr nocapture noundef nonnull readonly align 8 dereferenceable(64) %this) local_unnamed_addr #4 align 2 {
entry:
  %token_start_type_ = getelementptr inbounds i8, ptr %this, i64 48
  %0 = load i32, ptr %token_start_type_, align 8
  %cmp = icmp ne i32 %0, 0
  %token_start_internal_value_ = getelementptr inbounds i8, ptr %this, i64 56
  %1 = load i64, ptr %token_start_internal_value_, align 8
  %sub3 = sext i1 %cmp to i64
  %cond = xor i64 %1, %sub3
  %conv = trunc i64 %cond to i32
  ret i32 %conv
}